; Function Attrs: nounwind uwtable
define noundef i64 @lo_tell64(ptr noundef %0, i32 noundef %1) local_unnamed_addr #0 {
  %3 = alloca i64, align 8
  %4 = alloca [1 x %struct.PQArgBlock], align 16
  %5 = alloca i32, align 4
  call void @llvm.lifetime.start.p0(i64 8, ptr nonnull %3) #10
  call void @llvm.lifetime.start.p0(i64 16, ptr nonnull %4) #10
  call void @llvm.lifetime.start.p0(i64 4, ptr nonnull %5) #10
  %6 = tail call fastcc i32 @lo_initialize(ptr noundef %0)
  %7 = icmp slt i32 %6, 0
  br i1 %7, label %26, label %8

8:                                                ; preds = %2
  %9 = getelementptr inbounds nuw i8, ptr %0, i64 976
  %10 = load ptr, ptr %9, align 8
  %11 = getelementptr inbounds nuw i8, ptr %10, i64 32
  %12 = load i32, ptr %11, align 4
  %13 = icmp eq i32 %12, 0
  br i1 %13, label %14, label %15

14:                                               ; preds = %8
  tail call void (ptr, ptr, ...) @libpq_append_conn_error(ptr noundef nonnull %0, ptr noundef nonnull @.str, ptr noundef nonnull @.str.8) #10
  br label %26

15:                                               ; preds = %8
  %16 = getelementptr inbounds nuw i8, ptr %4, i64 4
  store i32 1, ptr %16, align 4
  store i32 4, ptr %4, align 16
  %17 = getelementptr inbounds nuw i8, ptr %4, i64 8
  store i32 %1, ptr %17, align 8
  %18 = call ptr @PQfn(ptr noundef nonnull %0, i32 noundef %12, ptr noundef nonnull %3, ptr noundef nonnull %5, i32 noundef 0, ptr noundef nonnull %4, i32 noundef 1) #10
  %19 = call i32 @PQresultStatus(ptr noundef %18) #10
  %20 = icmp eq i32 %19, 1
  %21 = load i32, ptr %5, align 4
  %22 = icmp eq i32 %21, 8
  %or.cond = select i1 %20, i1 %22, i1 false
  call void @PQclear(ptr noundef %18) #10
  br i1 %or.cond, label %23, label %26

23:                                               ; preds = %15
  %24 = load i64, ptr %3, align 8
  %25 = call noundef i64 @llvm.bswap.i64(i64 %24)
  br label %26

26:                                               ; preds = %15, %2, %23, %14
  %.0 = phi i64 [ -1, %14 ], [ %25, %23 ], [ -1, %2 ], [ -1, %15 ]
  call void @llvm.lifetime.end.p0(i64 4, ptr nonnull %5) #10
  call void @llvm.lifetime.end.p0(i64 16, ptr nonnull %4) #10
  call void @llvm.lifetime.end.p0(i64 8, ptr nonnull %3) #10
  ret i64 %.0
}